target datalayout = "e-m:e-p270:32:32-p271:32:32-p272:64:64-i64:64-i128:128-f80:128-n8:16:32:64-S128"
target triple = "x86_64-pc-linux-gnu"

%struct.UConverter = type { ptr, ptr, ptr, ptr, ptr, ptr, ptr, i32, i8, i8, i8, i8, i8, [7 x i8], i32, i32, i32, i32, i8, i8, i8, i8, i8, i8, i8, i8, [8 x i8], [32 x i8], [2 x i16], [2 x i16], [32 x i16], i32, [19 x i16], [31 x i8], i8, i8, i8, i32 }
%struct.UConverterDataISO2022 = type { [10 x ptr], ptr, i32, %struct.ISO2022State, %struct.ISO2022State, i32, i32, i8, [30 x i8], [3 x i8] }
%struct.ISO2022State = type { [4 x i8], i8, i8 }

; Function Attrs: mustprogress uwtable
define internal void @_ZL13_ISO2022CloseP10UConverter(ptr noundef %0) #0 {
  %2 = alloca ptr, align 8
  %3 = alloca ptr, align 8
  %4 = alloca ptr, align 8
  %5 = alloca i32, align 4
  store ptr %0, ptr %2, align 8, !tbaa !3
  call void @llvm.lifetime.start.p0(i64 8, ptr %3) #11
  %6 = load ptr, ptr %2, align 8, !tbaa !3
  %7 = getelementptr inbounds nuw %struct.UConverter, ptr %6, i32 0, i32 2
  %8 = load ptr, ptr %7, align 8, !tbaa !9
  store ptr %8, ptr %3, align 8, !tbaa !8
  call void @llvm.lifetime.start.p0(i64 8, ptr %4) #11
  %9 = load ptr, ptr %3, align 8, !tbaa !8
  %10 = getelementptr inbounds nuw %struct.UConverterDataISO2022, ptr %9, i32 0, i32 0
  %11 = getelementptr inbounds [10 x ptr], ptr %10, i64 0, i64 0
  store ptr %11, ptr %4, align 8, !tbaa !50
  call void @llvm.lifetime.start.p0(i64 4, ptr %5) #11
  %12 = load ptr, ptr %2, align 8, !tbaa !3
  %13 = getelementptr inbounds nuw %struct.UConverter, ptr %12, i32 0, i32 2
  %14 = load ptr, ptr %13, align 8, !tbaa !9
  %15 = icmp ne ptr %14, null
  br i1 %15, label %16, label %52

16:                                               ; preds = %1
  store i32 0, ptr %5, align 4, !tbaa !25
  br label %17

17:                                               ; preds = %34, %16
  %18 = load i32, ptr %5, align 4, !tbaa !25
  %19 = icmp slt i32 %18, 10
  br i1 %19, label %20, label %37

20:                                               ; preds = %17
  %21 = load ptr, ptr %4, align 8, !tbaa !50
  %22 = load i32, ptr %5, align 4, !tbaa !25
  %23 = sext i32 %22 to i64
  %24 = getelementptr inbounds ptr, ptr %21, i64 %23
  %25 = load ptr, ptr %24, align 8, !tbaa !31
  %26 = icmp ne ptr %25, null
  br i1 %26, label %27, label %33

27:                                               ; preds = %20
  %28 = load ptr, ptr %4, align 8, !tbaa !50
  %29 = load i32, ptr %5, align 4, !tbaa !25
  %30 = sext i32 %29 to i64
  %31 = getelementptr inbounds ptr, ptr %28, i64 %30
  %32 = load ptr, ptr %31, align 8, !tbaa !31
  call void @ucnv_unloadSharedDataIfReady_77(ptr noundef %32)
  br label %33

33:                                               ; preds = %27, %20
  br label %34

34:                                               ; preds = %33
  %35 = load i32, ptr %5, align 4, !tbaa !25
  %36 = add nsw i32 %35, 1
  store i32 %36, ptr %5, align 4, !tbaa !25
  br label %17, !llvm.loop !53

37:                                               ; preds = %17
  %38 = load ptr, ptr %3, align 8, !tbaa !8
  %39 = getelementptr inbounds nuw %struct.UConverterDataISO2022, ptr %38, i32 0, i32 1
  %40 = load ptr, ptr %39, align 8, !tbaa !36
  call void @ucnv_close_77(ptr noundef %40)
  %41 = load ptr, ptr %2, align 8, !tbaa !3
  %42 = getelementptr inbounds nuw %struct.UConverter, ptr %41, i32 0, i32 10
  %43 = load i8, ptr %42, align 2, !tbaa !55
  %44 = icmp ne i8 %43, 0
  br i1 %44, label %51, label %45

45:                                               ; preds = %37
  %46 = load ptr, ptr %2, align 8, !tbaa !3
  %47 = getelementptr inbounds nuw %struct.UConverter, ptr %46, i32 0, i32 2
  %48 = load ptr, ptr %47, align 8, !tbaa !9
  call void @uprv_free_77(ptr noundef %48)
  %49 = load ptr, ptr %2, align 8, !tbaa !3
  %50 = getelementptr inbounds nuw %struct.UConverter, ptr %49, i32 0, i32 2
  store ptr null, ptr %50, align 8, !tbaa !9
  br label %51

51:                                               ; preds = %45, %37
  br label %52

52:                                               ; preds = %51, %1
  call void @llvm.lifetime.end.p0(i64 4, ptr %5) #11
  call void @llvm.lifetime.end.p0(i64 8, ptr %4) #11
  call void @llvm.lifetime.end.p0(i64 8, ptr %3) #11
  ret void
}