; Function Attrs: mustprogress uwtable
define internal void @_ZL13_ISO2022CloseP10UConverter(ptr noundef captures(none) %0) #0 {
  %2 = getelementptr inbounds nuw i8, ptr %0, i64 16
  %3 = load ptr, ptr %2, align 8, !tbaa !3
  %.not = icmp eq ptr %3, null
  br i1 %.not, label %15, label %.preheader

.preheader:                                       ; preds = %1, %7
  %indvars.iv = phi i64 [ %indvars.iv.next, %7 ], [ 0, %1 ]
  %4 = getelementptr inbounds nuw ptr, ptr %3, i64 %indvars.iv
  %5 = load ptr, ptr %4, align 8, !tbaa !26
  %.not15 = icmp eq ptr %5, null
  br i1 %.not15, label %7, label %6

6:                                                ; preds = %.preheader
  tail call void @ucnv_unloadSharedDataIfReady_77(ptr noundef nonnull %5)
  br label %7

7:                                                ; preds = %.preheader, %6
  %indvars.iv.next = add nuw nsw i64 %indvars.iv, 1
  %exitcond.not = icmp eq i64 %indvars.iv.next, 10
  br i1 %exitcond.not, label %8, label %.preheader, !llvm.loop !47

8:                                                ; preds = %7
  %9 = getelementptr inbounds nuw i8, ptr %3, i64 80
  %10 = load ptr, ptr %9, align 8, !tbaa !28
  tail call void @ucnv_close_77(ptr noundef %10)
  %11 = getelementptr inbounds nuw i8, ptr %0, i64 62
  %12 = load i8, ptr %11, align 2, !tbaa !49
  %.not14 = icmp eq i8 %12, 0
  br i1 %.not14, label %13, label %15

13:                                               ; preds = %8
  %14 = load ptr, ptr %2, align 8, !tbaa !3
  tail call void @uprv_free_77(ptr noundef %14)
  store ptr null, ptr %2, align 8, !tbaa !3
  br label %15

15:                                               ; preds = %8, %13, %1
  ret void
}